target datalayout = "e-m:e-p270:32:32-p271:32:32-p272:64:64-i64:64-i128:128-f80:128-n8:16:32:64-S128"
target triple = "x86_64-pc-linux-gnu"

%struct.H5D_chk_idx_info_t = type { ptr, ptr, ptr, ptr }
%struct.H5O_layout_chunk_t = type { i32, i8, i32, [33 x i32], i32, i32, i64, i64, [33 x i64], [33 x i64], [33 x i64], [33 x i64], %union.anon.0 }
%union.anon.0 = type { %struct.H5O_layout_chunk_earray_t }
%struct.H5O_layout_chunk_earray_t = type { %struct.anon.1, i32, [33 x i32], [33 x i64], [33 x i64] }
%struct.anon.1 = type { i8, i8, i8, i8, i8 }
%struct.H5O_storage_chunk_t = type { i32, i64, ptr, %union.anon.3 }
%union.anon.3 = type { %struct.H5O_storage_chunk_btree_t }
%struct.H5O_storage_chunk_btree_t = type { i64, ptr }
%struct.H5O_storage_chunk_single_filt_t = type { i32, i32 }
%struct.H5D_chunk_rec_t = type { [33 x i64], i32, i32, i64 }

@H5D_init_g = external global i8, align 1
@H5_libterm_g = external global i8, align 1
@.str = private unnamed_addr constant [103 x i8] c"generated/home/dtcxzyw/WorkSpace/Projects/compilers/llvm-opt-benchmark/bench/hdf5/hdf5/src/H5Dsingle.c\00", align 1
@H5E_DATASET_g = external global i64, align 8
@__func__.H5D__single_idx_iterate = private unnamed_addr constant [24 x i8] c"H5D__single_idx_iterate\00", align 1
@H5E_CALLBACK_g = external global i64, align 8
@.str.2 = private unnamed_addr constant [43 x i8] c"failure in generic chunk iterator callback\00", align 1

; Function Attrs: nounwind uwtable
define internal i32 @H5D__single_idx_iterate(ptr noundef %0, ptr noundef %1, ptr noundef %2) #0 {
  %4 = alloca ptr, align 8
  %5 = alloca ptr, align 8
  %6 = alloca ptr, align 8
  %7 = alloca %struct.H5D_chunk_rec_t, align 8
  %8 = alloca i32, align 4
  store ptr %0, ptr %4, align 8, !tbaa !3
  store ptr %1, ptr %5, align 8, !tbaa !79
  store ptr %2, ptr %6, align 8, !tbaa !79
  call void @llvm.lifetime.start.p0(i64 280, ptr %7) #6
  call void @llvm.lifetime.start.p0(i64 4, ptr %8) #6
  store i32 -1, ptr %8, align 4, !tbaa !42
  %9 = load i8, ptr @H5D_init_g, align 1, !tbaa !12, !range !14, !noundef !15
  %10 = trunc i8 %9 to i1
  br i1 %10, label %15, label %11

11:                                               ; preds = %3
  %12 = load i8, ptr @H5_libterm_g, align 1, !tbaa !12, !range !14, !noundef !15
  %13 = trunc i8 %12 to i1
  %14 = xor i1 %13, true
  br label %15

15:                                               ; preds = %11, %3
  %16 = phi i1 [ true, %3 ], [ %14, %11 ]
  %17 = xor i1 %16, true
  %18 = xor i1 %17, true
  %19 = zext i1 %18 to i32
  %20 = sext i32 %19 to i64
  %21 = call i64 @llvm.expect.i64(i64 %20, i64 1)
  %22 = icmp ne i64 %21, 0
  br i1 %22, label %23, label %74

23:                                               ; preds = %15
  call void @llvm.memset.p0.i64(ptr align 8 %7, i8 0, i64 280, i1 false)
  %24 = load ptr, ptr %4, align 8, !tbaa !3
  %25 = getelementptr inbounds nuw %struct.H5D_chk_idx_info_t, ptr %24, i32 0, i32 3
  %26 = load ptr, ptr %25, align 8, !tbaa !30
  %27 = getelementptr inbounds nuw %struct.H5O_storage_chunk_t, ptr %26, i32 0, i32 1
  %28 = load i64, ptr %27, align 8, !tbaa !31
  %29 = getelementptr inbounds nuw %struct.H5D_chunk_rec_t, ptr %7, i32 0, i32 3
  store i64 %28, ptr %29, align 8, !tbaa !80
  %30 = load ptr, ptr %4, align 8, !tbaa !3
  %31 = getelementptr inbounds nuw %struct.H5D_chk_idx_info_t, ptr %30, i32 0, i32 2
  %32 = load ptr, ptr %31, align 8, !tbaa !27
  %33 = getelementptr inbounds nuw %struct.H5O_layout_chunk_t, ptr %32, i32 0, i32 1
  %34 = load i8, ptr %33, align 4, !tbaa !28
  %35 = zext i8 %34 to i32
  %36 = and i32 %35, 2
  %37 = icmp ne i32 %36, 0
  br i1 %37, label %38, label %53

38:                                               ; preds = %23
  %39 = load ptr, ptr %4, align 8, !tbaa !3
  %40 = getelementptr inbounds nuw %struct.H5D_chk_idx_info_t, ptr %39, i32 0, i32 3
  %41 = load ptr, ptr %40, align 8, !tbaa !30
  %42 = getelementptr inbounds nuw %struct.H5O_storage_chunk_t, ptr %41, i32 0, i32 3
  %43 = getelementptr inbounds nuw %struct.H5O_storage_chunk_single_filt_t, ptr %42, i32 0, i32 0
  %44 = load i32, ptr %43, align 8, !tbaa !34
  %45 = getelementptr inbounds nuw %struct.H5D_chunk_rec_t, ptr %7, i32 0, i32 1
  store i32 %44, ptr %45, align 8, !tbaa !82
  %46 = load ptr, ptr %4, align 8, !tbaa !3
  %47 = getelementptr inbounds nuw %struct.H5D_chk_idx_info_t, ptr %46, i32 0, i32 3
  %48 = load ptr, ptr %47, align 8, !tbaa !30
  %49 = getelementptr inbounds nuw %struct.H5O_storage_chunk_t, ptr %48, i32 0, i32 3
  %50 = getelementptr inbounds nuw %struct.H5O_storage_chunk_single_filt_t, ptr %49, i32 0, i32 1
  %51 = load i32, ptr %50, align 4, !tbaa !34
  %52 = getelementptr inbounds nuw %struct.H5D_chunk_rec_t, ptr %7, i32 0, i32 2
  store i32 %51, ptr %52, align 4, !tbaa !83
  br label %61

53:                                               ; preds = %23
  %54 = load ptr, ptr %4, align 8, !tbaa !3
  %55 = getelementptr inbounds nuw %struct.H5D_chk_idx_info_t, ptr %54, i32 0, i32 2
  %56 = load ptr, ptr %55, align 8, !tbaa !27
  %57 = getelementptr inbounds nuw %struct.H5O_layout_chunk_t, ptr %56, i32 0, i32 5
  %58 = load i32, ptr %57, align 4, !tbaa !78
  %59 = getelementptr inbounds nuw %struct.H5D_chunk_rec_t, ptr %7, i32 0, i32 1
  store i32 %58, ptr %59, align 8, !tbaa !82
  %60 = getelementptr inbounds nuw %struct.H5D_chunk_rec_t, ptr %7, i32 0, i32 2
  store i32 0, ptr %60, align 4, !tbaa !83
  br label %61

61:                                               ; preds = %53, %38
  %62 = load ptr, ptr %5, align 8, !tbaa !79
  %63 = load ptr, ptr %6, align 8, !tbaa !79
  %64 = call i32 %62(ptr noundef %7, ptr noundef %63)
  store i32 %64, ptr %8, align 4, !tbaa !42
  %65 = icmp slt i32 %64, 0
  br i1 %65, label %66, label %73

66:                                               ; preds = %61
  br label %67

67:                                               ; preds = %66
  %68 = load i64, ptr @H5E_DATASET_g, align 8, !tbaa !10
  %69 = load i64, ptr @H5E_CALLBACK_g, align 8, !tbaa !10
  %70 = call i32 (ptr, ptr, i32, i64, i64, ptr, ...) @H5E_printf_stack(ptr noundef @.str, ptr noundef @__func__.H5D__single_idx_iterate, i32 noundef 403, i64 noundef %68, i64 noundef %69, ptr noundef @.str.2)
  br label %71

71:                                               ; preds = %67
  br label %72

72:                                               ; preds = %71
  br label %73

73:                                               ; preds = %72, %61
  br label %74

74:                                               ; preds = %73, %15
  %75 = load i32, ptr %8, align 4, !tbaa !42
  call void @llvm.lifetime.end.p0(i64 4, ptr %8) #6
  call void @llvm.lifetime.end.p0(i64 280, ptr %7) #6
  ret i32 %75
}