; Function Attrs: nounwind uwtable
define internal i32 @H5D__single_idx_iterate(ptr noundef readonly captures(none) %0, ptr noundef readonly captures(none) %1, ptr noundef %2) #4 {
  %4 = alloca %struct.H5D_chunk_rec_t, align 8
  call void @llvm.lifetime.start.p0(i64 280, ptr nonnull %4) #11
  %5 = load i8, ptr @H5D_init_g, align 1, !tbaa !3, !range !7, !noundef !8
  %6 = trunc nuw i8 %5 to i1
  %7 = load i8, ptr @H5_libterm_g, align 1, !range !7
  %8 = trunc nuw i8 %7 to i1
  %9 = xor i1 %8, true
  %10 = select i1 %6, i1 true, i1 %9
  br i1 %10, label %11, label %39, !prof !9

11:                                               ; preds = %3
  call void @llvm.memset.p0.i64(ptr noundef nonnull align 8 dereferenceable(280) %4, i8 0, i64 272, i1 false)
  %12 = getelementptr inbounds nuw i8, ptr %0, i64 24
  %13 = load ptr, ptr %12, align 8, !tbaa !26
  %14 = getelementptr inbounds nuw i8, ptr %13, i64 8
  %15 = load i64, ptr %14, align 8, !tbaa !27
  %16 = getelementptr inbounds nuw i8, ptr %4, i64 272
  store i64 %15, ptr %16, align 8, !tbaa !69
  %17 = getelementptr inbounds nuw i8, ptr %0, i64 16
  %18 = load ptr, ptr %17, align 8, !tbaa !23
  %19 = getelementptr inbounds nuw i8, ptr %18, i64 4
  %20 = load i8, ptr %19, align 4, !tbaa !24
  %21 = and i8 %20, 2
  %.not = icmp eq i8 %21, 0
  %22 = getelementptr inbounds nuw i8, ptr %4, i64 264
  br i1 %.not, label %28, label %23

23:                                               ; preds = %11
  %24 = getelementptr inbounds nuw i8, ptr %13, i64 24
  %25 = load i32, ptr %24, align 8, !tbaa !30
  store i32 %25, ptr %22, align 8, !tbaa !71
  %26 = getelementptr inbounds nuw i8, ptr %13, i64 28
  %27 = load i32, ptr %26, align 4, !tbaa !30
  br label %31

28:                                               ; preds = %11
  %29 = getelementptr inbounds nuw i8, ptr %18, i64 148
  %30 = load i32, ptr %29, align 4, !tbaa !68
  store i32 %30, ptr %22, align 8, !tbaa !71
  br label %31

31:                                               ; preds = %28, %23
  %.sink = phi i32 [ 0, %28 ], [ %27, %23 ]
  %32 = getelementptr inbounds nuw i8, ptr %4, i64 268
  store i32 %.sink, ptr %32, align 4, !tbaa !72
  %33 = call i32 %1(ptr noundef nonnull %4, ptr noundef %2) #11
  %34 = icmp slt i32 %33, 0
  br i1 %34, label %35, label %39

35:                                               ; preds = %31
  %36 = load i64, ptr @H5E_DATASET_g, align 8, !tbaa !67
  %37 = load i64, ptr @H5E_CALLBACK_g, align 8, !tbaa !67
  %38 = call i32 (ptr, ptr, i32, i64, i64, ptr, ...) @H5E_printf_stack(ptr noundef nonnull @.str, ptr noundef nonnull @__func__.H5D__single_idx_iterate, i32 noundef 403, i64 noundef %36, i64 noundef %37, ptr noundef nonnull @.str.2) #11
  br label %39

39:                                               ; preds = %31, %35, %3
  %.0 = phi i32 [ %33, %35 ], [ %33, %31 ], [ -1, %3 ]
  call void @llvm.lifetime.end.p0(i64 280, ptr nonnull %4) #11
  ret i32 %.0
}